target datalayout = "e-m:e-p270:32:32-p271:32:32-p272:64:64-i64:64-i128:128-f80:128-n8:16:32:64-S128"
target triple = "x86_64-pc-linux-gnu"

; Function Attrs: mustprogress nounwind uwtable
define noundef i64 @_ZN3net19HpackHuffmanDecoder18CodeLengthOfPrefixEj(i32 noundef %0) #0 align 2 {
  %2 = alloca i32, align 4
  %3 = alloca i64, align 8
  store i32 %0, ptr %2, align 4, !tbaa !3
  call void @llvm.lifetime.start.p0(i64 8, ptr %3) #7
  %4 = load i32, ptr %2, align 4, !tbaa !3
  %5 = icmp ult i32 %4, -1207959552
  br i1 %5, label %6, label %12

6:                                                ; preds = %1
  %7 = load i32, ptr %2, align 4, !tbaa !3
  %8 = icmp ult i32 %7, 1342177280
  br i1 %8, label %9, label %10

9:                                                ; preds = %6
  store i64 5, ptr %3, align 8, !tbaa !7
  br label %11

10:                                               ; preds = %6
  store i64 6, ptr %3, align 8, !tbaa !7
  br label %11

11:                                               ; preds = %10, %9
  br label %103

12:                                               ; preds = %1
  %13 = load i32, ptr %2, align 4, !tbaa !3
  %14 = icmp ult i32 %13, -33554432
  br i1 %14, label %15, label %21

15:                                               ; preds = %12
  %16 = load i32, ptr %2, align 4, !tbaa !3
  %17 = icmp ult i32 %16, -134217728
  br i1 %17, label %18, label %19

18:                                               ; preds = %15
  store i64 7, ptr %3, align 8, !tbaa !7
  br label %20

19:                                               ; preds = %15
  store i64 8, ptr %3, align 8, !tbaa !7
  br label %20

20:                                               ; preds = %19, %18
  br label %102

21:                                               ; preds = %12
  %22 = load i32, ptr %2, align 4, !tbaa !3
  %23 = icmp ult i32 %22, -4194304
  br i1 %23, label %24, label %35

24:                                               ; preds = %21
  %25 = load i32, ptr %2, align 4, !tbaa !3
  %26 = icmp ult i32 %25, -6291456
  br i1 %26, label %27, label %33

27:                                               ; preds = %24
  %28 = load i32, ptr %2, align 4, !tbaa !3
  %29 = icmp ult i32 %28, -12582912
  br i1 %29, label %30, label %31

30:                                               ; preds = %27
  store i64 10, ptr %3, align 8, !tbaa !7
  br label %32

31:                                               ; preds = %27
  store i64 11, ptr %3, align 8, !tbaa !7
  br label %32

32:                                               ; preds = %31, %30
  br label %34

33:                                               ; preds = %24
  store i64 12, ptr %3, align 8, !tbaa !7
  br label %34

34:                                               ; preds = %33, %32
  br label %101

35:                                               ; preds = %21
  %36 = load i32, ptr %2, align 4, !tbaa !3
  %37 = icmp ult i32 %36, -131072
  br i1 %37, label %38, label %49

38:                                               ; preds = %35
  %39 = load i32, ptr %2, align 4, !tbaa !3
  %40 = icmp ult i32 %39, -524288
  br i1 %40, label %41, label %47

41:                                               ; preds = %38
  %42 = load i32, ptr %2, align 4, !tbaa !3
  %43 = icmp ult i32 %42, -1048576
  br i1 %43, label %44, label %45

44:                                               ; preds = %41
  store i64 13, ptr %3, align 8, !tbaa !7
  br label %46

45:                                               ; preds = %41
  store i64 14, ptr %3, align 8, !tbaa !7
  br label %46

46:                                               ; preds = %45, %44
  br label %48

47:                                               ; preds = %38
  store i64 15, ptr %3, align 8, !tbaa !7
  br label %48

48:                                               ; preds = %47, %46
  br label %100

49:                                               ; preds = %35
  %50 = load i32, ptr %2, align 4, !tbaa !3
  %51 = icmp ult i32 %50, -47104
  br i1 %51, label %52, label %63

52:                                               ; preds = %49
  %53 = load i32, ptr %2, align 4, !tbaa !3
  %54 = icmp ult i32 %53, -73728
  br i1 %54, label %55, label %61

55:                                               ; preds = %52
  %56 = load i32, ptr %2, align 4, !tbaa !3
  %57 = icmp ult i32 %56, -106496
  br i1 %57, label %58, label %59

58:                                               ; preds = %55
  store i64 19, ptr %3, align 8, !tbaa !7
  br label %60

59:                                               ; preds = %55
  store i64 20, ptr %3, align 8, !tbaa !7
  br label %60

60:                                               ; preds = %59, %58
  br label %62

61:                                               ; preds = %52
  store i64 21, ptr %3, align 8, !tbaa !7
  br label %62

62:                                               ; preds = %61, %60
  br label %99

63:                                               ; preds = %49
  %64 = load i32, ptr %2, align 4, !tbaa !3
  %65 = icmp ult i32 %64, -5632
  br i1 %65, label %66, label %72

66:                                               ; preds = %63
  %67 = load i32, ptr %2, align 4, !tbaa !3
  %68 = icmp ult i32 %67, -20480
  br i1 %68, label %69, label %70

69:                                               ; preds = %66
  store i64 22, ptr %3, align 8, !tbaa !7
  br label %71

70:                                               ; preds = %66
  store i64 23, ptr %3, align 8, !tbaa !7
  br label %71

71:                                               ; preds = %70, %69
  br label %98

72:                                               ; preds = %63
  %73 = load i32, ptr %2, align 4, !tbaa !3
  %74 = icmp ult i32 %73, -1088
  br i1 %74, label %75, label %86

75:                                               ; preds = %72
  %76 = load i32, ptr %2, align 4, !tbaa !3
  %77 = icmp ult i32 %76, -2048
  br i1 %77, label %78, label %84

78:                                               ; preds = %75
  %79 = load i32, ptr %2, align 4, !tbaa !3
  %80 = icmp ult i32 %79, -2560
  br i1 %80, label %81, label %82

81:                                               ; preds = %78
  store i64 24, ptr %3, align 8, !tbaa !7
  br label %83

82:                                               ; preds = %78
  store i64 25, ptr %3, align 8, !tbaa !7
  br label %83

83:                                               ; preds = %82, %81
  br label %85

84:                                               ; preds = %75
  store i64 26, ptr %3, align 8, !tbaa !7
  br label %85

85:                                               ; preds = %84, %83
  br label %97

86:                                               ; preds = %72
  %87 = load i32, ptr %2, align 4, !tbaa !3
  %88 = icmp ult i32 %87, -16
  br i1 %88, label %89, label %95

89:                                               ; preds = %86
  %90 = load i32, ptr %2, align 4, !tbaa !3
  %91 = icmp ult i32 %90, -480
  br i1 %91, label %92, label %93

92:                                               ; preds = %89
  store i64 27, ptr %3, align 8, !tbaa !7
  br label %94

93:                                               ; preds = %89
  store i64 28, ptr %3, align 8, !tbaa !7
  br label %94

94:                                               ; preds = %93, %92
  br label %96

95:                                               ; preds = %86
  store i64 30, ptr %3, align 8, !tbaa !7
  br label %96

96:                                               ; preds = %95, %94
  br label %97

97:                                               ; preds = %96, %85
  br label %98

98:                                               ; preds = %97, %71
  br label %99

99:                                               ; preds = %98, %62
  br label %100

100:                                              ; preds = %99, %48
  br label %101

101:                                              ; preds = %100, %34
  br label %102

102:                                              ; preds = %101, %20
  br label %103

103:                                              ; preds = %102, %11
  %104 = load i64, ptr %3, align 8, !tbaa !7
  call void @llvm.lifetime.end.p0(i64 8, ptr %3) #7
  ret i64 %104
}