; Function Attrs: mustprogress nofree norecurse nosync nounwind willreturn memory(none) uwtable
define noundef range(i64 5, 31) i64 @_ZN3net19HpackHuffmanDecoder18CodeLengthOfPrefixEj(i32 noundef %0) local_unnamed_addr #0 align 2 {
  %2 = icmp ult i32 %0, -1207959552
  br i1 %2, label %3, label %5

3:                                                ; preds = %1
  %4 = icmp ult i32 %0, 1342177280
  %. = select i1 %4, i64 5, i64 6
  br label %41

5:                                                ; preds = %1
  %6 = icmp samesign ult i32 %0, -33554432
  br i1 %6, label %7, label %9

7:                                                ; preds = %5
  %8 = icmp samesign ult i32 %0, -134217728
  %.22 = select i1 %8, i64 7, i64 8
  br label %41

9:                                                ; preds = %5
  %10 = icmp samesign ult i32 %0, -4194304
  br i1 %10, label %11, label %15

11:                                               ; preds = %9
  %12 = icmp samesign ult i32 %0, -6291456
  br i1 %12, label %13, label %41

13:                                               ; preds = %11
  %14 = icmp samesign ult i32 %0, -12582912
  %.23 = select i1 %14, i64 10, i64 11
  br label %41

15:                                               ; preds = %9
  %16 = icmp samesign ult i32 %0, -131072
  br i1 %16, label %17, label %21

17:                                               ; preds = %15
  %18 = icmp samesign ult i32 %0, -524288
  br i1 %18, label %19, label %41

19:                                               ; preds = %17
  %20 = icmp samesign ult i32 %0, -1048576
  %.24 = select i1 %20, i64 13, i64 14
  br label %41

21:                                               ; preds = %15
  %22 = icmp samesign ult i32 %0, -47104
  br i1 %22, label %23, label %27

23:                                               ; preds = %21
  %24 = icmp samesign ult i32 %0, -73728
  br i1 %24, label %25, label %41

25:                                               ; preds = %23
  %26 = icmp samesign ult i32 %0, -106496
  %.25 = select i1 %26, i64 19, i64 20
  br label %41

27:                                               ; preds = %21
  %28 = icmp samesign ult i32 %0, -5632
  br i1 %28, label %29, label %31

29:                                               ; preds = %27
  %30 = icmp samesign ult i32 %0, -20480
  %.26 = select i1 %30, i64 22, i64 23
  br label %41

31:                                               ; preds = %27
  %32 = icmp samesign ult i32 %0, -1088
  br i1 %32, label %33, label %37

33:                                               ; preds = %31
  %34 = icmp samesign ult i32 %0, -2048
  br i1 %34, label %35, label %41

35:                                               ; preds = %33
  %36 = icmp samesign ult i32 %0, -2560
  %.27 = select i1 %36, i64 24, i64 25
  br label %41

37:                                               ; preds = %31
  %38 = icmp samesign ult i32 %0, -16
  br i1 %38, label %39, label %41

39:                                               ; preds = %37
  %40 = icmp samesign ult i32 %0, -480
  %.28 = select i1 %40, i64 27, i64 28
  br label %41

41:                                               ; preds = %37, %39, %33, %35, %29, %23, %25, %17, %19, %11, %13, %7, %3
  %.0 = phi i64 [ %., %3 ], [ %.22, %7 ], [ %.23, %13 ], [ 12, %11 ], [ %.24, %19 ], [ 15, %17 ], [ %.25, %25 ], [ 21, %23 ], [ %.26, %29 ], [ %.27, %35 ], [ 26, %33 ], [ %.28, %39 ], [ 30, %37 ]
  ret i64 %.0
}